#include <math.h>
#include <stdio.h>
#include <stdlib.h>
#include <string.h>
#include <iostream>
using namespace std;

int main()
{
	int N, i, j, l=1,a[32]={0};
	cin >> N;
	a[31]=1;
	for(i=1; i <= N; i++)
	{
		for(j=32-l; j <= 31; j++)
		{
			a[j] *= 2;
		}
		for(j=31; j >= 32-l; j--)
		{
			if(a[j] >= 10)
			{
				a[j-1] += a[j]/10;
				a[j]=a[j]%10;
			}
		}
		j=0;
		while(a[j] == 0)
			j++;
		l=32-j;
	}
	i=0;
	while(a[i] == 0)
	{
		i++;
	}
	for( ; i<32; i++)
	{
		cout << a[i];
	}
	return 0;
}